; ModuleID = '38/383.c'
source_filename = "38/383.c"
target datalayout = "e-m:e-p270:32:32-p271:32:32-p272:64:64-i64:64-f80:128-n8:16:32:64-S128"
target triple = "x86_64-pc-linux-gnu"

@.str = private unnamed_addr constant [3 x i8] c"%d\00", align 1
@.str.1 = private unnamed_addr constant [3 x i8] c"%f\00", align 1
@.str.2 = private unnamed_addr constant [7 x i8] c"%.5lf\0A\00", align 1

; Function Attrs: noinline nounwind uwtable
define dso_local i32 @main(i32 %0, i8** %1) #0 {
  %3 = alloca i32, align 4
  %4 = alloca i32, align 4
  %5 = alloca i8**, align 8
  %6 = alloca i32, align 4
  %7 = alloca i32, align 4
  %8 = alloca [1000 x i32], align 16
  %9 = alloca i32, align 4
  %10 = alloca [1000 x float], align 16
  %11 = alloca [1000 x float], align 16
  %12 = alloca [1000 x double], align 16
  store i32 0, i32* %3, align 4
  store i32 %0, i32* %4, align 4
  store i8** %1, i8*** %5, align 8
  %13 = bitcast [1000 x float]* %10 to i8*
  call void @llvm.memset.p0i8.i64(i8* align 16 %13, i8 0, i64 4000, i1 false)
  %14 = bitcast [1000 x float]* %11 to i8*
  call void @llvm.memset.p0i8.i64(i8* align 16 %14, i8 0, i64 4000, i1 false)
  %15 = bitcast [1000 x double]* %12 to i8*
  call void @llvm.memset.p0i8.i64(i8* align 16 %15, i8 0, i64 8000, i1 false)
  %16 = call i32 (i8*, ...) @__isoc99_scanf(i8* getelementptr inbounds ([3 x i8], [3 x i8]* @.str, i64 0, i64 0), i32* %6)
  store i32 0, i32* %7, align 4
  br label %17

17:                                               ; preds = %113, %2
  %18 = load i32, i32* %7, align 4
  %19 = load i32, i32* %6, align 4
  %20 = icmp slt i32 %18, %19
  br i1 %20, label %21, label %116

21:                                               ; preds = %17
  %22 = load i32, i32* %7, align 4
  %23 = sext i32 %22 to i64
  %24 = getelementptr inbounds [1000 x i32], [1000 x i32]* %8, i64 0, i64 %23
  %25 = call i32 (i8*, ...) @__isoc99_scanf(i8* getelementptr inbounds ([3 x i8], [3 x i8]* @.str, i64 0, i64 0), i32* %24)
  store i32 0, i32* %9, align 4
  br label %26

26:                                               ; preds = %47, %21
  %27 = load i32, i32* %9, align 4
  %28 = load i32, i32* %7, align 4
  %29 = sext i32 %28 to i64
  %30 = getelementptr inbounds [1000 x i32], [1000 x i32]* %8, i64 0, i64 %29
  %31 = load i32, i32* %30, align 4
  %32 = icmp slt i32 %27, %31
  br i1 %32, label %33, label %50

33:                                               ; preds = %26
  %34 = load i32, i32* %9, align 4
  %35 = sext i32 %34 to i64
  %36 = getelementptr inbounds [1000 x float], [1000 x float]* %10, i64 0, i64 %35
  %37 = call i32 (i8*, ...) @__isoc99_scanf(i8* getelementptr inbounds ([3 x i8], [3 x i8]* @.str.1, i64 0, i64 0), float* %36)
  %38 = load i32, i32* %9, align 4
  %39 = sext i32 %38 to i64
  %40 = getelementptr inbounds [1000 x float], [1000 x float]* %10, i64 0, i64 %39
  %41 = load float, float* %40, align 4
  %42 = load i32, i32* %7, align 4
  %43 = sext i32 %42 to i64
  %44 = getelementptr inbounds [1000 x float], [1000 x float]* %11, i64 0, i64 %43
  %45 = load float, float* %44, align 4
  %46 = fadd float %45, %41
  store float %46, float* %44, align 4
  br label %47

47:                                               ; preds = %33
  %48 = load i32, i32* %9, align 4
  %49 = add nsw i32 %48, 1
  store i32 %49, i32* %9, align 4
  br label %26

50:                                               ; preds = %26
  store i32 0, i32* %9, align 4
  br label %51

51:                                               ; preds = %97, %50
  %52 = load i32, i32* %9, align 4
  %53 = load i32, i32* %7, align 4
  %54 = sext i32 %53 to i64
  %55 = getelementptr inbounds [1000 x i32], [1000 x i32]* %8, i64 0, i64 %54
  %56 = load i32, i32* %55, align 4
  %57 = icmp slt i32 %52, %56
  br i1 %57, label %58, label %100

58:                                               ; preds = %51
  %59 = load i32, i32* %9, align 4
  %60 = sext i32 %59 to i64
  %61 = getelementptr inbounds [1000 x float], [1000 x float]* %10, i64 0, i64 %60
  %62 = load float, float* %61, align 4
  %63 = load i32, i32* %7, align 4
  %64 = sext i32 %63 to i64
  %65 = getelementptr inbounds [1000 x float], [1000 x float]* %11, i64 0, i64 %64
  %66 = load float, float* %65, align 4
  %67 = load i32, i32* %7, align 4
  %68 = sext i32 %67 to i64
  %69 = getelementptr inbounds [1000 x i32], [1000 x i32]* %8, i64 0, i64 %68
  %70 = load i32, i32* %69, align 4
  %71 = sitofp i32 %70 to float
  %72 = fdiv float %66, %71
  %73 = fsub float %62, %72
  %74 = fpext float %73 to double
  %75 = load i32, i32* %9, align 4
  %76 = sext i32 %75 to i64
  %77 = getelementptr inbounds [1000 x float], [1000 x float]* %10, i64 0, i64 %76
  %78 = load float, float* %77, align 4
  %79 = load i32, i32* %7, align 4
  %80 = sext i32 %79 to i64
  %81 = getelementptr inbounds [1000 x float], [1000 x float]* %11, i64 0, i64 %80
  %82 = load float, float* %81, align 4
  %83 = load i32, i32* %7, align 4
  %84 = sext i32 %83 to i64
  %85 = getelementptr inbounds [1000 x i32], [1000 x i32]* %8, i64 0, i64 %84
  %86 = load i32, i32* %85, align 4
  %87 = sitofp i32 %86 to float
  %88 = fdiv float %82, %87
  %89 = fsub float %78, %88
  %90 = fpext float %89 to double
  %91 = fmul double %74, %90
  %92 = load i32, i32* %7, align 4
  %93 = sext i32 %92 to i64
  %94 = getelementptr inbounds [1000 x double], [1000 x double]* %12, i64 0, i64 %93
  %95 = load double, double* %94, align 8
  %96 = fadd double %95, %91
  store double %96, double* %94, align 8
  br label %97

97:                                               ; preds = %58
  %98 = load i32, i32* %9, align 4
  %99 = add nsw i32 %98, 1
  store i32 %99, i32* %9, align 4
  br label %51

100:                                              ; preds = %51
  %101 = load i32, i32* %7, align 4
  %102 = sext i32 %101 to i64
  %103 = getelementptr inbounds [1000 x double], [1000 x double]* %12, i64 0, i64 %102
  %104 = load double, double* %103, align 8
  %105 = load i32, i32* %7, align 4
  %106 = sext i32 %105 to i64
  %107 = getelementptr inbounds [1000 x i32], [1000 x i32]* %8, i64 0, i64 %106
  %108 = load i32, i32* %107, align 4
  %109 = sitofp i32 %108 to double
  %110 = fdiv double %104, %109
  %111 = call double @sqrt(double %110) #4
  %112 = call i32 (i8*, ...) @printf(i8* getelementptr inbounds ([7 x i8], [7 x i8]* @.str.2, i64 0, i64 0), double %111)
  br label %113

113:                                              ; preds = %100
  %114 = load i32, i32* %7, align 4
  %115 = add nsw i32 %114, 1
  store i32 %115, i32* %7, align 4
  br label %17

116:                                              ; preds = %17
  ret i32 0
}

; Function Attrs: argmemonly nounwind willreturn
declare void @llvm.memset.p0i8.i64(i8* nocapture writeonly, i8, i64, i1 immarg) #1

declare dso_local i32 @__isoc99_scanf(i8*, ...) #2

declare dso_local i32 @printf(i8*, ...) #2

; Function Attrs: nounwind
declare dso_local double @sqrt(double) #3


!llvm.module.flags = !{!0}
!llvm.ident = !{!1}

!0 = !{i32 1, !"wchar_size", i32 4}
!1 = !{!"clang version 10.0.0-4ubuntu1 "}
